; Function Attrs: mustprogress uwtable
define void @_ZN2cv9boxPointsENS_11RotatedRectERKNS_12_OutputArrayE(ptr noundef byval(%"class.cv::RotatedRect") align 8 %0, ptr noundef nonnull align 8 dereferenceable(24) %1) local_unnamed_addr #0 personality ptr @__gxx_personality_v0 {
  %3 = alloca %"class.cv::utils::trace::details::Region", align 8
  %4 = alloca %"class.cv::Mat", align 8
  call void @llvm.lifetime.start.p0(i64 16, ptr nonnull %3) #17
  call void @_ZN2cv5utils5trace7details6RegionC1ERKNS3_21LocationStaticStorageE(ptr noundef nonnull align 8 dereferenceable(12) %3, ptr noundef nonnull align 8 dereferenceable(32) @_ZZN2cv9boxPointsENS_11RotatedRectERKNS_12_OutputArrayEE25__cv_trace_location_fn422)
  invoke void @_ZNK2cv12_OutputArray6createEiiiibNS0_9DepthMaskE(ptr noundef nonnull align 8 dereferenceable(24) %1, i32 noundef 4, i32 noundef 2, i32 noundef 5, i32 noundef -1, i1 noundef zeroext false, i32 noundef 0)
          to label %5 unwind label %21

5:                                                ; preds = %2
  call void @llvm.lifetime.start.p0(i64 96, ptr nonnull %4) #17
  %6 = invoke noundef i32 @_ZNK2cv11_InputArray4kindEv(ptr noundef nonnull align 8 dereferenceable(24) %1)
          to label %.noexc unwind label %23

.noexc:                                           ; preds = %5
  %7 = icmp eq i32 %6, 65536
  br i1 %7, label %8, label %11

8:                                                ; preds = %.noexc
  %9 = getelementptr inbounds nuw i8, ptr %1, i64 8
  %10 = load ptr, ptr %9, align 8, !tbaa !10, !noalias !64
  invoke void @_ZN2cv3MatC1ERKS0_(ptr noundef nonnull align 8 dereferenceable(96) %4, ptr noundef nonnull align 8 dereferenceable(96) %10)
          to label %_ZNK2cv11_InputArray6getMatEi.exit unwind label %23

11:                                               ; preds = %.noexc
  invoke void @_ZNK2cv11_InputArray7getMat_Ei(ptr dead_on_unwind nonnull writable sret(%"class.cv::Mat") align 8 %4, ptr noundef nonnull align 8 dereferenceable(24) %1, i32 noundef -1)
          to label %_ZNK2cv11_InputArray6getMatEi.exit unwind label %23

_ZNK2cv11_InputArray6getMatEi.exit:               ; preds = %8, %11
  %12 = getelementptr inbounds nuw i8, ptr %4, i64 16
  %13 = load ptr, ptr %12, align 8, !tbaa !20
  invoke void @_ZNK2cv11RotatedRect6pointsEPNS_6Point_IfEE(ptr noundef nonnull align 4 dereferenceable(20) %0, ptr noundef %13)
          to label %14 unwind label %25

14:                                               ; preds = %_ZNK2cv11_InputArray6getMatEi.exit
  call void @_ZN2cv3MatD1Ev(ptr noundef nonnull align 8 dereferenceable(96) %4) #17
  call void @llvm.lifetime.end.p0(i64 96, ptr nonnull %4) #17
  %15 = getelementptr inbounds nuw i8, ptr %3, i64 8
  %16 = load i32, ptr %15, align 8, !tbaa !48
  %.not.i = icmp eq i32 %16, 0
  br i1 %.not.i, label %_ZN2cv5utils5trace7details6RegionD2Ev.exit, label %17

17:                                               ; preds = %14
  invoke void @_ZN2cv5utils5trace7details6Region7destroyEv(ptr noundef nonnull align 8 dereferenceable(12) %3)
          to label %_ZN2cv5utils5trace7details6RegionD2Ev.exit unwind label %18

18:                                               ; preds = %17
  %19 = landingpad { ptr, i32 }
          catch ptr null
  %20 = extractvalue { ptr, i32 } %19, 0
  call void @__clang_call_terminate(ptr %20) #21
  unreachable

_ZN2cv5utils5trace7details6RegionD2Ev.exit:       ; preds = %14, %17
  call void @llvm.lifetime.end.p0(i64 16, ptr nonnull %3) #17
  ret void

21:                                               ; preds = %2
  %22 = landingpad { ptr, i32 }
          cleanup
  br label %28

23:                                               ; preds = %11, %8, %5
  %24 = landingpad { ptr, i32 }
          cleanup
  br label %27

25:                                               ; preds = %_ZNK2cv11_InputArray6getMatEi.exit
  %26 = landingpad { ptr, i32 }
          cleanup
  call void @_ZN2cv3MatD1Ev(ptr noundef nonnull align 8 dereferenceable(96) %4) #17
  br label %27

27:                                               ; preds = %25, %23
  %.pn = phi { ptr, i32 } [ %26, %25 ], [ %24, %23 ]
  call void @llvm.lifetime.end.p0(i64 96, ptr nonnull %4) #17
  br label %28

28:                                               ; preds = %27, %21
  %.pn.pn = phi { ptr, i32 } [ %.pn, %27 ], [ %22, %21 ]
  call void @_ZN2cv5utils5trace7details6RegionD2Ev(ptr noundef nonnull align 8 dereferenceable(12) %3) #17
  call void @llvm.lifetime.end.p0(i64 16, ptr nonnull %3) #17
  resume { ptr, i32 } %.pn.pn
}